; Function Attrs: mustprogress nofree norecurse nosync nounwind willreturn memory(none) uwtable
define hidden range(i64 0, -1) i64 @lj_carith_modu64(i64 noundef %0, i64 noundef %1) local_unnamed_addr #2 {
  %3 = icmp eq i64 %1, 0
  br i1 %3, label %6, label %4

4:                                                ; preds = %2
  %5 = urem i64 %0, %1
  br label %6

6:                                                ; preds = %2, %4
  %.0 = phi i64 [ %5, %4 ], [ -9223372036854775808, %2 ]
  ret i64 %.0
}